cgvar._bufferdict
BufferDict
p0
(tRp1
S'(dp0\nS\'gvlist\'\np1\nS"(dp0\\nS\'shape\'\\np1\\n(lp2\\nI2\\nasS\'bufsize\'\\np3\\nI2\\nsS\'bcovs\'\\np4\\n(lp5\\n(lp6\\n(lp7\\na(lp8\\na(lp9\\na(lp10\\naa(lp11\\n(lp12\\nI0\\naI1\\naa(lp13\\n(lp14\\nF0.0010442697266003175\\naF0.0005063085686690153\\naa(lp15\\nF0.0005063085686690153\\naF0.004188994091142526\\naaa(lp16\\na(lp17\\naasS\'means\'\\np18\\n(lp19\\nF0.2527973878722172\\naF0.44876226090133586\\nasS\'fix_cov\'\\np20\\nI01\\ns."\np2\nsS\'data\'\np3\nccollections\nOrderedDict\np4\n((lp5\n(lp6\nS\'a\'\np7\na(igvar._utilities\nGVarRef\np8\n(dp9\nS\'loc\'\np10\nI0\nsbaa(lp11\nS\'b\'\np12\na(igvar._utilities\nGVarRef\np13\n(dp14\ng10\nI1\nsbaatp15\nRp16\ns.'
p2
b.